Certificate:
    Data:
        Version: 1 (0x0)
        Serial Number: 1048578 (0x100002)
        Signature Algorithm: sha512WithRSAEncryption
        Issuer: C=CA, ST=British Columbia, L=Delta, O=., OU=., CN=localhost
        Validity
            Not Before: Dec 20 19:54:06 2020 GMT
            Not After : Dec 20 19:54:06 2021 GMT
        Subject: C=CA, ST=British Columbia, O=., OU=., CN=client
        Subject Public Key Info:
            Public Key Algorithm: rsaEncryption
                RSA Public-Key: (2048 bit)
                Modulus:
                    00:a1:8a:04:9a:41:3a:8b:3c:64:b9:99:bc:60:2c:
                    4c:1b:83:e3:e0:a2:32:e9:cb:a2:b7:21:59:de:f0:
                    8a:80:81:17:05:33:ad:ae:b5:dd:ae:b9:3d:e2:0e:
                    ee:5f:0b:ac:3c:50:11:a9:fc:de:1d:85:ba:fa:7d:
                    e0:a5:43:ed:be:d4:06:d3:ca:46:67:bd:76:01:d7:
                    71:4a:5c:3e:f9:92:38:f6:e7:e8:a6:10:de:f9:a6:
                    4d:22:dc:72:00:5e:ff:b9:8a:dc:60:14:67:41:0d:
                    17:78:39:18:f6:5c:92:04:75:02:bb:f4:f0:26:40:
                    63:c0:99:67:be:55:11:9f:12:77:5c:69:97:e0:96:
                    17:31:75:e1:17:83:f4:51:f4:97:4d:b0:2f:06:71:
                    05:b6:9f:27:07:9a:92:60:2d:5c:2d:e4:ef:3d:a8:
                    21:69:10:cb:07:10:5c:e6:71:7b:d3:d5:34:5c:32:
                    f0:e5:f8:79:48:ea:9b:fa:89:e6:08:17:8e:1a:d2:
                    fe:29:60:d5:86:93:1b:49:40:69:1c:f8:19:fd:6a:
                    7b:87:3e:02:05:b8:01:71:fa:d4:f6:0c:d1:10:ad:
                    57:7f:00:84:5a:f7:fd:5d:4d:0a:c3:92:54:23:12:
                    b5:ef:77:b8:be:e0:51:7d:f3:7f:1d:7c:38:fb:a9:
                    43:bd
                Exponent: 65537 (0x10001)
    Signature Algorithm: sha512WithRSAEncryption
         9a:c8:18:04:a8:f4:20:2e:f8:ff:4e:95:b2:ba:33:46:96:c3:
         cd:63:57:93:5e:00:b7:0c:07:0b:9e:16:e5:cc:92:3c:f2:7b:
         cc:34:5f:95:5a:07:ca:a9:88:17:16:6f:1f:b6:ea:36:24:8c:
         b1:10:b9:63:80:dd:9b:23:89:dd:9f:45:cb:0b:26:b1:4a:c4:
         eb:77:00:40:6f:9a:22:51:41:ff:0e:eb:0d:70:30:08:8e:fb:
         3d:62:44:e4:55:29:dc:4a:66:c4:da:27:03:cf:8b:0e:e8:3c:
         80:17:c4:a7:e4:0f:ff:2f:c8:f4:81:05:10:b6:53:1b:b2:37:
         9b:49:66:74:ae:4d:89:1f:d6:21:98:13:04:32:7f:67:58:65:
         60:7d:d6:f9:2a:4b:81:a4:b4:9a:0f:14:63:a9:bf:57:c3:76:
         33:70:47:3a:7a:c4:5d:50:41:03:d6:ae:99:92:34:7e:ad:34:
         58:74:91:bc:db:0d:2d:84:ac:0f:b8:da:99:6e:5a:4e:09:50:
         d4:73:9e:fe:32:1e:5f:04:18:4a:de:cb:c3:3c:55:b1:78:27:
         f3:18:1b:e1:f1:2e:9f:7f:cf:79:8f:c2:3e:21:bd:9e:e6:f3:
         76:13:7b:9e:aa:c4:38:f1:ff:bb:6a:ca:5e:f2:5f:c3:63:fa:
         d5:f5:1e:13
-----BEGIN CERTIFICATE-----
MIIDKzCCAhMCAxAAAjANBgkqhkiG9w0BAQ0FADBkMQswCQYDVQQGEwJDQTEZMBcG
A1UECBMQQnJpdGlzaCBDb2x1bWJpYTEOMAwGA1UEBxMFRGVsdGExCjAIBgNVBAoT
AS4xCjAIBgNVBAsTAS4xEjAQBgNVBAMTCWxvY2FsaG9zdDAeFw0yMDEyMjAxOTU0
MDZaFw0yMTEyMjAxOTU0MDZaMFExCzAJBgNVBAYTAkNBMRkwFwYDVQQIExBCcml0
aXNoIENvbHVtYmlhMQowCAYDVQQKEwEuMQowCAYDVQQLEwEuMQ8wDQYDVQQDEwZj
bGllbnQwggEiMA0GCSqGSIb3DQEBAQUAA4IBDwAwggEKAoIBAQChigSaQTqLPGS5
mbxgLEwbg+PgojLpy6K3IVne8IqAgRcFM62utd2uuT3iDu5fC6w8UBGp/N4dhbr6
feClQ+2+1AbTykZnvXYB13FKXD75kjj25+imEN75pk0i3HIAXv+5itxgFGdBDRd4
ORj2XJIEdQK79PAmQGPAmWe+VRGfEndcaZfglhcxdeEXg/RR9JdNsC8GcQW2nycH
mpJgLVwt5O89qCFpEMsHEFzmcXvT1TRcMvDl+HlI6pv6ieYIF44a0v4pYNWGkxtJ
QGkc+Bn9anuHPgIFuAFx+tT2DNEQrVd/AIRa9/1dTQrDklQjErXvd7i+4FF9838d
fDj7qUO9AgMBAAEwDQYJKoZIhvcNAQENBQADggEBAJrIGASo9CAu+P9OlbK6M0aW
w81jV5NeALcMBwueFuXMkjzye8w0X5VaB8qpiBcWbx+26jYkjLEQuWOA3Zsjid2f
RcsLJrFKxOt3AEBvmiJRQf8O6w1wMAiO+z1iRORVKdxKZsTaJwPPiw7oPIAXxKfk
D/8vyPSBBRC2UxuyN5tJZnSuTYkf1iGYEwQyf2dYZWB91vkqS4GktJoPFGOpv1fD
djNwRzp6xF1QQQPWrpmSNH6tNFh0kbzbDS2ErA+42pluWk4JUNRznv4yHl8EGEre
y8M8VbF4J/MYG+HxLp9/z3mPwj4hvZ7m83YTe56qxDjx/7tqyl7yX8Nj+tX1HhM=
-----END CERTIFICATE-----
