Certificate:
    Data:
        Version: 1 (0x0)
        Serial Number: 1048577 (0x100001)
        Signature Algorithm: sha512WithRSAEncryption
        Issuer: C=CA, ST=British Columbia, L=Delta, O=., OU=., CN=localhost
        Validity
            Not Before: Dec 20 18:59:04 2020 GMT
            Not After : Dec 20 18:59:04 2021 GMT
        Subject: C=CA, ST=British Columbia, O=., OU=., CN=localhost
        Subject Public Key Info:
            Public Key Algorithm: rsaEncryption
                RSA Public-Key: (2048 bit)
                Modulus:
                    00:f7:4c:8a:a7:40:ef:dd:dc:d5:d1:c3:9e:df:04:
                    6f:95:5e:02:53:26:84:09:d8:e5:dd:65:46:2f:7d:
                    d8:14:10:0a:b8:de:cd:4d:db:fd:b6:95:ca:ea:98:
                    86:91:09:2d:be:68:c8:5b:7b:b0:3a:f4:c0:06:d9:
                    0c:23:3b:77:15:71:90:ca:c5:ed:50:9b:34:96:7c:
                    b2:9c:fb:17:c7:a2:ef:03:ad:99:81:3f:57:1a:7b:
                    bc:12:75:0d:30:5d:5e:f0:ae:0f:23:84:cc:6f:5f:
                    fe:bf:79:17:1e:ac:96:0c:c8:1e:59:a4:e7:92:0e:
                    42:7a:27:d7:d4:5d:a1:8c:ae:35:b7:d8:bc:9a:9f:
                    3d:f9:31:61:9c:ce:fa:8a:80:5a:1f:5d:14:52:36:
                    51:29:6e:ec:24:13:d9:1c:9e:e3:d8:0f:3f:68:5c:
                    d1:4f:1d:85:4d:82:3e:b0:90:21:c0:7b:58:4e:f9:
                    4d:69:05:c6:b7:f2:2f:d5:69:f9:af:d5:68:00:c8:
                    8a:ba:81:bb:1e:e0:61:5e:c2:3e:c9:0c:32:01:09:
                    11:58:7a:95:28:1a:b9:5e:d2:1d:ff:f3:0e:16:f8:
                    6f:ce:61:ea:50:db:9c:40:a2:13:55:2a:81:88:c4:
                    1f:b8:e4:b5:d0:ab:70:51:3f:3e:f2:44:8e:c7:d6:
                    49:47
                Exponent: 65537 (0x10001)
    Signature Algorithm: sha512WithRSAEncryption
         56:5e:55:0d:df:29:d9:7b:58:d6:03:6d:af:5c:b9:85:2a:a3:
         72:1e:b6:ff:0d:78:61:89:dd:51:a3:01:13:9f:57:bf:e3:c5:
         86:0b:a5:3c:a3:1c:12:69:f7:f1:29:3f:a6:aa:1b:58:e1:d3:
         f8:bd:90:18:48:cb:ea:2a:37:52:7c:ff:91:82:57:fe:9c:3a:
         dc:d9:e8:95:7a:8d:9f:7d:d6:f5:c7:c0:8f:ab:f1:1a:92:12:
         04:03:72:23:05:d2:fb:02:28:f2:e7:2f:2d:6b:8b:5d:81:bb:
         7a:12:7a:f5:e3:51:59:6b:1a:35:19:98:08:12:5c:a4:03:d8:
         7e:18:cc:8c:c0:86:bf:b6:fc:25:5a:7c:e6:54:50:5c:8c:8b:
         d8:c1:e0:55:24:14:43:2d:9e:ea:20:71:40:95:6d:a0:27:24:
         b4:91:09:2a:5b:c9:c0:83:ed:7c:ad:1a:05:bc:cb:de:65:f4:
         dd:a5:68:51:1c:56:94:00:2a:67:ec:b4:d4:19:d6:53:cc:4d:
         c4:22:e9:03:96:b0:59:7c:2d:f7:b4:c2:ed:5f:05:d7:64:11:
         96:c2:11:e8:7c:1c:91:63:d7:2f:cf:25:82:46:57:9f:3e:31:
         72:9e:00:b5:47:81:ab:cc:04:15:91:51:9d:c5:53:51:0e:e5:
         d0:35:37:32
-----BEGIN CERTIFICATE-----
MIIDLjCCAhYCAxAAATANBgkqhkiG9w0BAQ0FADBkMQswCQYDVQQGEwJDQTEZMBcG
A1UECBMQQnJpdGlzaCBDb2x1bWJpYTEOMAwGA1UEBxMFRGVsdGExCjAIBgNVBAoT
AS4xCjAIBgNVBAsTAS4xEjAQBgNVBAMTCWxvY2FsaG9zdDAeFw0yMDEyMjAxODU5
MDRaFw0yMTEyMjAxODU5MDRaMFQxCzAJBgNVBAYTAkNBMRkwFwYDVQQIExBCcml0
aXNoIENvbHVtYmlhMQowCAYDVQQKEwEuMQowCAYDVQQLEwEuMRIwEAYDVQQDEwls
b2NhbGhvc3QwggEiMA0GCSqGSIb3DQEBAQUAA4IBDwAwggEKAoIBAQD3TIqnQO/d
3NXRw57fBG+VXgJTJoQJ2OXdZUYvfdgUEAq43s1N2/22lcrqmIaRCS2+aMhbe7A6
9MAG2QwjO3cVcZDKxe1QmzSWfLKc+xfHou8DrZmBP1cae7wSdQ0wXV7wrg8jhMxv
X/6/eRcerJYMyB5ZpOeSDkJ6J9fUXaGMrjW32Lyanz35MWGczvqKgFofXRRSNlEp
buwkE9kcnuPYDz9oXNFPHYVNgj6wkCHAe1hO+U1pBca38i/Vafmv1WgAyIq6gbse
4GFewj7JDDIBCRFYepUoGrle0h3/8w4W+G/OYepQ25xAohNVKoGIxB+45LXQq3BR
Pz7yRI7H1klHAgMBAAEwDQYJKoZIhvcNAQENBQADggEBAFZeVQ3fKdl7WNYDba9c
uYUqo3Ietv8NeGGJ3VGjAROfV7/jxYYLpTyjHBJp9/EpP6aqG1jh0/i9kBhIy+oq
N1J8/5GCV/6cOtzZ6JV6jZ991vXHwI+r8RqSEgQDciMF0vsCKPLnLy1ri12Bu3oS
evXjUVlrGjUZmAgSXKQD2H4YzIzAhr+2/CVafOZUUFyMi9jB4FUkFEMtnuogcUCV
baAnJLSRCSpbycCD7XytGgW8y95l9N2laFEcVpQAKmfstNQZ1lPMTcQi6QOWsFl8
Lfe0wu1fBddkEZbCEeh8HJFj1y/PJYJGV58+MXKeALVHgavMBBWRUZ3FU1EO5dA1
NzI=
-----END CERTIFICATE-----
