Certificate:
    Data:
        Version: 1 (0x0)
        Serial Number: 1048578 (0x100002)
        Signature Algorithm: sha512WithRSAEncryption
        Issuer: C=CA, ST=British Columbia, L=Delta, O=., OU=., CN=localhost
        Validity
            Not Before: Dec 20 19:07:27 2020 GMT
            Not After : Dec 20 19:07:27 2021 GMT
        Subject: C=CA, ST=British Columbia, O=., OU=., CN=client
        Subject Public Key Info:
            Public Key Algorithm: rsaEncryption
                RSA Public-Key: (2048 bit)
                Modulus:
                    00:e6:c5:f4:26:34:55:70:e4:98:90:8e:4d:e4:55:
                    c5:d1:69:61:cd:2f:ee:7f:40:63:29:65:5b:f4:04:
                    e0:fb:bc:38:f9:b2:97:e7:f6:14:b2:e3:8c:ec:d7:
                    1b:87:f2:2a:64:2f:da:8a:04:55:f2:f7:7c:fd:91:
                    f2:0c:1b:b9:89:f1:47:65:74:4d:4c:80:8d:2e:4a:
                    9d:31:97:96:11:6e:4e:56:52:20:da:9a:e6:51:e7:
                    d6:54:ba:6a:81:4f:b5:2e:ab:24:46:13:4b:4f:3b:
                    85:55:6c:fb:01:e2:7a:11:1e:8a:71:fe:ae:ad:8f:
                    b7:72:63:cf:ec:82:d7:d2:e6:f8:09:33:09:1f:08:
                    5f:de:2b:8f:ae:fc:ab:e1:d0:38:12:df:57:f6:18:
                    04:bd:ef:1d:fc:e0:9d:06:05:61:9c:16:ca:58:6c:
                    a4:f4:4b:ba:d9:84:af:7c:32:28:ff:de:03:c4:ad:
                    14:c2:95:4e:cc:fe:ce:aa:4e:7a:6d:5d:a1:b8:f0:
                    1c:53:8b:74:ac:38:21:3b:ce:9b:01:7b:74:20:57:
                    4b:aa:75:be:1a:d8:af:23:6e:0a:83:45:6f:41:51:
                    52:f9:20:ba:2d:fc:0f:09:09:e0:92:00:b8:30:88:
                    e9:a2:20:76:f2:5b:8a:87:3b:21:ea:c5:87:38:8e:
                    97:df
                Exponent: 65537 (0x10001)
    Signature Algorithm: sha512WithRSAEncryption
         a5:e2:83:5a:4b:bc:4f:66:98:7e:db:1f:63:7e:65:97:97:b7:
         f1:48:8b:86:44:5d:75:4b:25:d1:8f:52:c3:e3:be:ad:7d:f4:
         cd:40:db:b8:c5:16:4b:10:95:ae:a0:9f:6f:a9:85:d2:97:57:
         2d:02:c3:3e:ea:4e:a1:31:72:fa:a7:b3:48:db:3b:b4:ad:fe:
         33:07:96:1d:1d:8e:a7:fc:0e:61:35:96:61:78:7b:dd:dd:64:
         5a:40:b4:84:9c:28:72:3f:26:78:61:0b:78:8e:d9:e8:5b:3f:
         f7:f8:99:ab:1a:1f:d2:f1:3e:40:de:03:4e:96:d6:c7:62:9f:
         01:42:dc:4a:74:ef:a2:f3:77:4f:b5:b1:09:7a:5a:1b:78:73:
         63:f6:8d:dc:e0:b4:87:3b:5b:64:cc:c2:7e:e3:27:73:36:b7:
         96:42:ac:cd:5a:c9:78:1c:05:51:48:f6:c6:dd:85:63:e8:42:
         cf:53:4c:4b:50:f2:f1:51:f9:f1:35:83:eb:5f:6b:a2:3e:9c:
         82:94:68:c2:3b:d4:28:4b:60:77:d7:dc:61:c8:ec:7c:04:37:
         49:66:91:c5:29:43:06:15:e1:b6:52:5a:63:39:22:9c:4c:dc:
         0e:68:3e:05:98:2d:05:72:16:67:39:97:b0:48:9b:30:37:b6:
         4f:c0:38:4a
-----BEGIN CERTIFICATE-----
MIIDKzCCAhMCAxAAAjANBgkqhkiG9w0BAQ0FADBkMQswCQYDVQQGEwJDQTEZMBcG
A1UECBMQQnJpdGlzaCBDb2x1bWJpYTEOMAwGA1UEBxMFRGVsdGExCjAIBgNVBAoT
AS4xCjAIBgNVBAsTAS4xEjAQBgNVBAMTCWxvY2FsaG9zdDAeFw0yMDEyMjAxOTA3
MjdaFw0yMTEyMjAxOTA3MjdaMFExCzAJBgNVBAYTAkNBMRkwFwYDVQQIExBCcml0
aXNoIENvbHVtYmlhMQowCAYDVQQKEwEuMQowCAYDVQQLEwEuMQ8wDQYDVQQDEwZj
bGllbnQwggEiMA0GCSqGSIb3DQEBAQUAA4IBDwAwggEKAoIBAQDmxfQmNFVw5JiQ
jk3kVcXRaWHNL+5/QGMpZVv0BOD7vDj5spfn9hSy44zs1xuH8ipkL9qKBFXy93z9
kfIMG7mJ8UdldE1MgI0uSp0xl5YRbk5WUiDamuZR59ZUumqBT7UuqyRGE0tPO4VV
bPsB4noRHopx/q6tj7dyY8/sgtfS5vgJMwkfCF/eK4+u/Kvh0DgS31f2GAS97x38
4J0GBWGcFspYbKT0S7rZhK98Mij/3gPErRTClU7M/s6qTnptXaG48BxTi3SsOCE7
zpsBe3QgV0uqdb4a2K8jbgqDRW9BUVL5ILot/A8JCeCSALgwiOmiIHbyW4qHOyHq
xYc4jpffAgMBAAEwDQYJKoZIhvcNAQENBQADggEBAKXig1pLvE9mmH7bH2N+ZZeX
t/FIi4ZEXXVLJdGPUsPjvq199M1A27jFFksQla6gn2+phdKXVy0Cwz7qTqExcvqn
s0jbO7St/jMHlh0djqf8DmE1lmF4e93dZFpAtIScKHI/JnhhC3iO2ehbP/f4masa
H9LxPkDeA06W1sdinwFC3Ep076Lzd0+1sQl6Wht4c2P2jdzgtIc7W2TMwn7jJ3M2
t5ZCrM1ayXgcBVFI9sbdhWPoQs9TTEtQ8vFR+fE1g+tfa6I+nIKUaMI71ChLYHfX
3GHI7HwEN0lmkcUpQwYV4bZSWmM5IpxM3A5oPgWYLQVyFmc5l7BImzA3tk/AOEo=
-----END CERTIFICATE-----
