Certificate:
    Data:
        Version: 1 (0x0)
        Serial Number: 1048577 (0x100001)
        Signature Algorithm: sha512WithRSAEncryption
        Issuer: C=CA, ST=British Columbia, L=Delta, O=., OU=., CN=localhost
        Validity
            Not Before: Dec 20 19:49:48 2020 GMT
            Not After : Dec 20 19:49:48 2021 GMT
        Subject: C=CA, ST=British Columbia, O=., OU=., CN=localhost
        Subject Public Key Info:
            Public Key Algorithm: rsaEncryption
                RSA Public-Key: (2048 bit)
                Modulus:
                    00:ce:81:c0:5d:8c:aa:3d:3e:e3:c4:49:7a:df:cc:
                    ed:31:ed:cc:a1:65:9b:62:44:89:8c:38:8d:c0:8a:
                    9c:79:18:42:84:d6:ba:ab:60:8d:1c:7f:0a:e4:36:
                    97:a5:68:7e:2a:a2:89:fd:48:67:4d:11:24:28:19:
                    44:ea:f5:91:32:d5:46:d3:f5:4e:d2:c3:f3:59:45:
                    30:1c:26:4d:92:63:e3:50:53:f6:95:07:64:2d:47:
                    b3:4f:e1:c5:0c:fd:3c:89:ab:c4:b1:6c:49:2a:fb:
                    02:0b:4a:ec:49:16:77:c9:45:6e:02:b9:ec:81:d5:
                    fd:c7:3b:ee:fb:b6:f1:e2:9d:41:e1:f8:dd:a6:e2:
                    32:81:80:22:fe:d4:9b:58:f6:75:4a:9b:45:73:94:
                    9d:6e:5a:9a:72:15:23:5d:9c:53:35:f0:f6:bd:0f:
                    79:ab:67:b4:17:6d:fe:11:10:d0:f7:52:fc:07:29:
                    ff:bd:88:17:21:b2:a0:d4:e8:0e:5c:33:2c:30:c7:
                    ab:e2:1e:f0:e1:19:da:55:ea:f6:9c:87:30:0b:a4:
                    3b:de:04:30:e6:de:3a:71:35:e9:8c:0f:c7:ae:2d:
                    51:c9:4d:b0:1a:45:e6:6c:ca:95:b3:2b:57:a5:dd:
                    0b:e0:e2:21:ba:81:aa:c6:63:98:7b:56:35:00:a6:
                    22:11
                Exponent: 65537 (0x10001)
    Signature Algorithm: sha512WithRSAEncryption
         31:d2:2e:57:39:14:8a:df:be:83:a7:a6:a7:04:e9:82:a2:8a:
         eb:11:0f:5e:20:41:b2:7e:e1:93:31:92:e7:9e:94:6c:61:dc:
         60:4a:ac:55:3b:ce:4f:01:6d:0a:7c:16:45:79:05:b9:59:96:
         86:42:69:33:ef:f5:4c:46:18:18:fe:2b:a7:38:1a:ad:bd:47:
         9f:0c:86:7e:10:0a:bb:80:f3:79:38:28:50:ef:4b:ff:e3:ff:
         d7:5c:51:68:24:19:59:ca:e9:5e:e2:ce:d9:fa:2a:ac:99:bc:
         67:a7:84:23:ca:cf:65:34:7f:90:81:b8:05:18:b1:f9:37:95:
         4c:9a:da:be:b6:34:45:eb:9a:4c:c8:94:71:6b:a2:5e:af:de:
         8f:48:0f:2f:bd:a1:9c:90:50:61:2d:a8:ae:e3:3e:b5:6a:04:
         b4:9c:8f:ad:82:a5:cc:38:0f:4a:8d:44:52:a5:6a:f7:09:e7:
         cf:67:54:7d:cd:5f:9f:4e:51:dc:a3:31:bc:12:e8:86:fd:23:
         bc:e9:ab:36:1a:f7:8b:42:1d:d0:ca:33:f6:df:7e:03:d8:98:
         a9:b8:f5:4a:36:ec:8e:5a:53:91:d1:93:6e:73:89:3b:e8:2c:
         ea:8e:b9:22:7b:ae:c9:0e:11:8a:fa:ec:4b:49:a5:08:db:1e:
         3d:06:96:b0
-----BEGIN CERTIFICATE-----
MIIDLjCCAhYCAxAAATANBgkqhkiG9w0BAQ0FADBkMQswCQYDVQQGEwJDQTEZMBcG
A1UECBMQQnJpdGlzaCBDb2x1bWJpYTEOMAwGA1UEBxMFRGVsdGExCjAIBgNVBAoT
AS4xCjAIBgNVBAsTAS4xEjAQBgNVBAMTCWxvY2FsaG9zdDAeFw0yMDEyMjAxOTQ5
NDhaFw0yMTEyMjAxOTQ5NDhaMFQxCzAJBgNVBAYTAkNBMRkwFwYDVQQIExBCcml0
aXNoIENvbHVtYmlhMQowCAYDVQQKEwEuMQowCAYDVQQLEwEuMRIwEAYDVQQDEwls
b2NhbGhvc3QwggEiMA0GCSqGSIb3DQEBAQUAA4IBDwAwggEKAoIBAQDOgcBdjKo9
PuPESXrfzO0x7cyhZZtiRImMOI3Aipx5GEKE1rqrYI0cfwrkNpelaH4qoon9SGdN
ESQoGUTq9ZEy1UbT9U7Sw/NZRTAcJk2SY+NQU/aVB2QtR7NP4cUM/TyJq8SxbEkq
+wILSuxJFnfJRW4CueyB1f3HO+77tvHinUHh+N2m4jKBgCL+1JtY9nVKm0VzlJ1u
WppyFSNdnFM18Pa9D3mrZ7QXbf4REND3UvwHKf+9iBchsqDU6A5cMywwx6viHvDh
GdpV6vachzALpDveBDDm3jpxNemMD8euLVHJTbAaReZsypWzK1el3Qvg4iG6garG
Y5h7VjUApiIRAgMBAAEwDQYJKoZIhvcNAQENBQADggEBADHSLlc5FIrfvoOnpqcE
6YKiiusRD14gQbJ+4ZMxkueelGxh3GBKrFU7zk8BbQp8FkV5BblZloZCaTPv9UxG
GBj+K6c4Gq29R58Mhn4QCruA83k4KFDvS//j/9dcUWgkGVnK6V7iztn6KqyZvGen
hCPKz2U0f5CBuAUYsfk3lUya2r62NEXrmkzIlHFrol6v3o9IDy+9oZyQUGEtqK7j
PrVqBLScj62Cpcw4D0qNRFKlavcJ589nVH3NX59OUdyjMbwS6Ib9I7zpqzYa94tC
HdDKM/bffgPYmKm49Uo27I5aU5HRk25ziTvoLOqOuSJ7rskOEYr67EtJpQjbHj0G
lrA=
-----END CERTIFICATE-----
